; Function Attrs: nounwind uwtable
define zeroext range(i8 0, 2) i8 @l_Lean_Elab_PartialFixpoint_isPartialCorrectnessName(ptr noundef %0, ptr noundef %1) local_unnamed_addr #0 {
  %3 = ptrtoint ptr %1 to i64
  %4 = and i64 %3, 1
  %.not.i35 = icmp eq i64 %4, 0
  br i1 %.not.i35, label %lean_obj_tag.exit.thread, label %lean_obj_tag.exit

lean_obj_tag.exit:                                ; preds = %2
  %5 = and i64 %3, 8589934590
  %6 = icmp eq i64 %5, 2
  br i1 %6, label %9, label %lean_dec.exit20

lean_obj_tag.exit.thread:                         ; preds = %2
  %7 = getelementptr i8, ptr %1, i64 4
  %.val.i = load i32, ptr %7, align 4
  %.mask = and i32 %.val.i, -16777216
  %8 = icmp eq i32 %.mask, 16777216
  br i1 %8, label %9, label %.thread

9:                                                ; preds = %lean_obj_tag.exit.thread, %lean_obj_tag.exit
  %10 = getelementptr inbounds nuw i8, ptr %1, i64 8
  %11 = load ptr, ptr %10, align 8, !tbaa !9
  %12 = ptrtoint ptr %11 to i64
  %13 = and i64 %12, 1
  %.not42 = icmp eq i64 %13, 0
  br i1 %.not42, label %14, label %lean_inc.exit19

14:                                               ; preds = %9
  %.val.i36 = load i32, ptr %11, align 4, !tbaa !4
  %15 = icmp sgt i32 %.val.i36, 0
  br i1 %15, label %16, label %18, !prof !14

16:                                               ; preds = %14
  %17 = add nuw i32 %.val.i36, 1
  store i32 %17, ptr %11, align 4, !tbaa !4
  br label %lean_inc.exit19

18:                                               ; preds = %14
  %.not.i37 = icmp eq i32 %.val.i36, 0
  br i1 %.not.i37, label %lean_inc.exit19, label %19

19:                                               ; preds = %18
  tail call void @lean_inc_ref_cold(ptr noundef nonnull %11) #6
  br label %lean_inc.exit19

lean_inc.exit19:                                  ; preds = %19, %18, %16, %9
  %20 = getelementptr inbounds nuw i8, ptr %1, i64 16
  %21 = load ptr, ptr %20, align 8, !tbaa !9
  %22 = ptrtoint ptr %21 to i64
  %23 = and i64 %22, 1
  %.not43 = icmp eq i64 %23, 0
  br i1 %.not43, label %24, label %lean_inc.exit

24:                                               ; preds = %lean_inc.exit19
  %.val.i38 = load i32, ptr %21, align 4, !tbaa !4
  %25 = icmp sgt i32 %.val.i38, 0
  br i1 %25, label %26, label %28, !prof !14

26:                                               ; preds = %24
  %27 = add nuw i32 %.val.i38, 1
  store i32 %27, ptr %21, align 4, !tbaa !4
  br label %lean_inc.exit

28:                                               ; preds = %24
  %.not.i39 = icmp eq i32 %.val.i38, 0
  br i1 %.not.i39, label %lean_inc.exit, label %29

29:                                               ; preds = %28
  tail call void @lean_inc_ref_cold(ptr noundef nonnull %21) #6
  br label %lean_inc.exit

lean_inc.exit:                                    ; preds = %29, %28, %26, %lean_inc.exit19
  br i1 %.not.i35, label %30, label %lean_dec.exit24

30:                                               ; preds = %lean_inc.exit
  %31 = load i32, ptr %1, align 4, !tbaa !4
  %32 = icmp sgt i32 %31, 1
  br i1 %32, label %33, label %35, !prof !14

33:                                               ; preds = %30
  %34 = add nsw i32 %31, -1
  store i32 %34, ptr %1, align 4, !tbaa !4
  br label %lean_dec.exit24

35:                                               ; preds = %30
  %.not.i = icmp eq i32 %31, 0
  br i1 %.not.i, label %lean_dec.exit24, label %36

36:                                               ; preds = %35
  tail call void @lean_dec_ref_cold(ptr noundef nonnull %1) #6
  br label %lean_dec.exit24

lean_dec.exit24:                                  ; preds = %36, %35, %33, %lean_inc.exit
  %37 = load ptr, ptr @l_Lean_Elab_PartialFixpoint_isPartialCorrectnessName___closed__1, align 8, !tbaa !9
  %38 = icmp eq ptr %21, %37
  br i1 %38, label %lean_string_dec_eq.exit, label %39

39:                                               ; preds = %lean_dec.exit24
  %40 = getelementptr i8, ptr %21, i64 8
  %.val.i.i = load i64, ptr %40, align 8, !tbaa !11
  %41 = getelementptr i8, ptr %37, i64 8
  %.val7.i.i = load i64, ptr %41, align 8, !tbaa !11
  %42 = icmp eq i64 %.val.i.i, %.val7.i.i
  br i1 %42, label %43, label %lean_string_dec_eq.exit

43:                                               ; preds = %39
  %44 = tail call zeroext i1 @lean_string_eq_cold(ptr noundef nonnull %21, ptr noundef nonnull %37) #6
  %45 = xor i1 %44, true
  br label %lean_string_dec_eq.exit

lean_string_dec_eq.exit:                          ; preds = %lean_dec.exit24, %39, %43
  %46 = phi i1 [ false, %lean_dec.exit24 ], [ true, %39 ], [ %45, %43 ]
  br i1 %.not43, label %47, label %lean_dec.exit23

47:                                               ; preds = %lean_string_dec_eq.exit
  %48 = load i32, ptr %21, align 4, !tbaa !4
  %49 = icmp sgt i32 %48, 1
  br i1 %49, label %50, label %52, !prof !14

50:                                               ; preds = %47
  %51 = add nsw i32 %48, -1
  store i32 %51, ptr %21, align 4, !tbaa !4
  br label %lean_dec.exit23

52:                                               ; preds = %47
  %.not.i25 = icmp eq i32 %48, 0
  br i1 %.not.i25, label %lean_dec.exit23, label %53

53:                                               ; preds = %52
  tail call void @lean_dec_ref_cold(ptr noundef nonnull %21) #6
  br label %lean_dec.exit23

lean_dec.exit23:                                  ; preds = %53, %52, %50, %lean_string_dec_eq.exit
  br i1 %46, label %54, label %71

54:                                               ; preds = %lean_dec.exit23
  br i1 %.not42, label %55, label %lean_dec.exit22

55:                                               ; preds = %54
  %56 = load i32, ptr %11, align 4, !tbaa !4
  %57 = icmp sgt i32 %56, 1
  br i1 %57, label %58, label %60, !prof !14

58:                                               ; preds = %55
  %59 = add nsw i32 %56, -1
  store i32 %59, ptr %11, align 4, !tbaa !4
  br label %lean_dec.exit22

60:                                               ; preds = %55
  %.not.i27 = icmp eq i32 %56, 0
  br i1 %.not.i27, label %lean_dec.exit22, label %61

61:                                               ; preds = %60
  tail call void @lean_dec_ref_cold(ptr noundef nonnull %11) #6
  br label %lean_dec.exit22

lean_dec.exit22:                                  ; preds = %61, %60, %58, %54
  %62 = ptrtoint ptr %0 to i64
  %63 = and i64 %62, 1
  %.not45 = icmp eq i64 %63, 0
  br i1 %.not45, label %64, label %lean_dec.exit21

64:                                               ; preds = %lean_dec.exit22
  %65 = load i32, ptr %0, align 4, !tbaa !4
  %66 = icmp sgt i32 %65, 1
  br i1 %66, label %67, label %69, !prof !14

67:                                               ; preds = %64
  %68 = add nsw i32 %65, -1
  store i32 %68, ptr %0, align 4, !tbaa !4
  br label %lean_dec.exit21

69:                                               ; preds = %64
  %.not.i29 = icmp eq i32 %65, 0
  br i1 %.not.i29, label %lean_dec.exit21, label %70

70:                                               ; preds = %69
  tail call void @lean_dec_ref_cold(ptr noundef nonnull %0) #6
  br label %lean_dec.exit21

71:                                               ; preds = %lean_dec.exit23
  %72 = tail call zeroext i8 @l_Lean_Elab_PartialFixpoint_isOptionFixpoint(ptr noundef %0, ptr noundef %11)
  br label %lean_dec.exit21

.thread:                                          ; preds = %lean_obj_tag.exit.thread
  %73 = load i32, ptr %1, align 4, !tbaa !4
  %74 = icmp sgt i32 %73, 1
  br i1 %74, label %75, label %77, !prof !14

75:                                               ; preds = %.thread
  %76 = add nsw i32 %73, -1
  store i32 %76, ptr %1, align 4, !tbaa !4
  br label %lean_dec.exit20

77:                                               ; preds = %.thread
  %.not.i31 = icmp eq i32 %73, 0
  br i1 %.not.i31, label %lean_dec.exit20, label %78

78:                                               ; preds = %77
  tail call void @lean_dec_ref_cold(ptr noundef nonnull %1) #6
  br label %lean_dec.exit20

lean_dec.exit20:                                  ; preds = %lean_obj_tag.exit, %78, %77, %75
  %79 = ptrtoint ptr %0 to i64
  %80 = and i64 %79, 1
  %.not = icmp eq i64 %80, 0
  br i1 %.not, label %81, label %lean_dec.exit21

81:                                               ; preds = %lean_dec.exit20
  %82 = load i32, ptr %0, align 4, !tbaa !4
  %83 = icmp sgt i32 %82, 1
  br i1 %83, label %84, label %86, !prof !14

84:                                               ; preds = %81
  %85 = add nsw i32 %82, -1
  store i32 %85, ptr %0, align 4, !tbaa !4
  br label %lean_dec.exit21

86:                                               ; preds = %81
  %.not.i33 = icmp eq i32 %82, 0
  br i1 %.not.i33, label %lean_dec.exit21, label %87

87:                                               ; preds = %86
  tail call void @lean_dec_ref_cold(ptr noundef nonnull %0) #6
  br label %lean_dec.exit21

lean_dec.exit21:                                  ; preds = %lean_dec.exit20, %84, %86, %87, %lean_dec.exit22, %67, %69, %70, %71
  %.1 = phi i8 [ %72, %71 ], [ 0, %70 ], [ 0, %69 ], [ 0, %67 ], [ 0, %lean_dec.exit22 ], [ 0, %87 ], [ 0, %86 ], [ 0, %84 ], [ 0, %lean_dec.exit20 ]
  ret i8 %.1
}